; Function Attrs: nounwind uwtable
define hidden i32 @mbedtls_x509write_crt_pem(ptr noundef %0, ptr noundef %1, i64 noundef %2, ptr noundef %3, ptr noundef %4) local_unnamed_addr #2 {
  %6 = alloca i64, align 8
  call void @llvm.lifetime.start.p0(i64 8, ptr nonnull %6) #11
  %7 = tail call i32 @mbedtls_x509write_crt_der(ptr noundef %0, ptr noundef %1, i64 noundef %2, ptr noundef %3, ptr noundef %4)
  %8 = icmp slt i32 %7, 0
  br i1 %8, label %15, label %9

9:                                                ; preds = %5
  %10 = getelementptr inbounds nuw i8, ptr %1, i64 %2
  %11 = zext nneg i32 %7 to i64
  %12 = sub nsw i64 0, %11
  %13 = getelementptr inbounds i8, ptr %10, i64 %12
  %14 = call i32 @mbedtls_pem_write_buffer(ptr noundef nonnull @.str.4, ptr noundef nonnull @.str.5, ptr noundef %13, i64 noundef %11, ptr noundef %1, i64 noundef %2, ptr noundef nonnull %6) #11
  br label %15

15:                                               ; preds = %9, %5
  %.0 = phi i32 [ %7, %5 ], [ %14, %9 ]
  call void @llvm.lifetime.end.p0(i64 8, ptr nonnull %6) #11
  ret i32 %.0
}